; Function Attrs: null_pointer_is_valid sspstrong uwtable
define internal i32 @fileexp_dissect_symlink_rqst(ptr noundef %0, i32 noundef %1, ptr noundef %2, ptr noundef %3, ptr noundef %4, ptr noundef %5) #0 {
  %7 = getelementptr inbounds nuw i8, ptr %4, i64 25
  %8 = load i8, ptr %7, align 1, !range !6, !noundef !7
  %9 = trunc nuw i8 %8 to i1
  br i1 %9, label %17, label %10

10:                                               ; preds = %6
  %11 = tail call i32 @dissect_ndr_pointer(ptr noundef %0, i32 noundef %1, ptr noundef %2, ptr noundef %3, ptr noundef %4, ptr noundef %5, ptr noundef nonnull @dissect_afsFid, i32 noundef 1, ptr noundef nonnull @.str.376, i32 noundef -1)
  %12 = tail call i32 @dissect_ndr_pointer(ptr noundef %0, i32 noundef %11, ptr noundef %2, ptr noundef %3, ptr noundef %4, ptr noundef %5, ptr noundef nonnull @dissect_afstaggedname, i32 noundef 1, ptr noundef nonnull @.str.450, i32 noundef -1)
  %13 = tail call i32 @dissect_ndr_pointer(ptr noundef %0, i32 noundef %12, ptr noundef %2, ptr noundef %3, ptr noundef %4, ptr noundef %5, ptr noundef nonnull @dissect_afsTaggedPath, i32 noundef 1, ptr noundef nonnull @.str.455, i32 noundef -1)
  %14 = tail call i32 @dissect_ndr_pointer(ptr noundef %0, i32 noundef %13, ptr noundef %2, ptr noundef %3, ptr noundef %4, ptr noundef %5, ptr noundef nonnull @dissect_afsstorestatus, i32 noundef 1, ptr noundef nonnull @.str.439, i32 noundef -1)
  %15 = tail call i32 @dissect_ndr_pointer(ptr noundef %0, i32 noundef %14, ptr noundef %2, ptr noundef %3, ptr noundef %4, ptr noundef %5, ptr noundef nonnull @dissect_minvvp, i32 noundef 1, ptr noundef nonnull @.str.377, i32 noundef -1)
  %16 = tail call i32 @dissect_afsFlags(ptr noundef %0, i32 noundef %15, ptr noundef %2, ptr noundef %3, ptr noundef %4, ptr noundef %5)
  br label %17

17:                                               ; preds = %6, %10
  %.0 = phi i32 [ %16, %10 ], [ %1, %6 ]
  ret i32 %.0
}